target datalayout = "e-m:e-p270:32:32-p271:32:32-p272:64:64-i64:64-i128:128-f80:128-n8:16:32:64-S128"
target triple = "x86_64-pc-linux-gnu"

%struct.ossl_qrx_st = type { ptr, ptr, ptr, i64, i64, i64, %struct.ossl_list_st_urxe, %struct.ossl_list_st_urxe, %struct.ossl_list_st_rxe, %struct.ossl_list_st_rxe, [3 x i64], %struct.ossl_qrl_enc_level_set_st, i64, i64, i64, ptr, ptr, ptr, ptr, i8, i8, ptr, ptr, ptr }
%struct.ossl_list_st_urxe = type { ptr, ptr, i64 }
%struct.ossl_list_st_rxe = type { ptr, ptr, i64 }
%struct.ossl_qrl_enc_level_set_st = type { [4 x %struct.ossl_qrl_enc_level_st] }
%struct.ossl_qrl_enc_level_st = type { %struct.quic_hdr_protector_st, ptr, [2 x ptr], ptr, ptr, i64, i64, i32, i32, i8, i8, [2 x [16 x i8]], [64 x i8] }
%struct.quic_hdr_protector_st = type { ptr, ptr, ptr, ptr, i32 }

; Function Attrs: nounwind uwtable
define i64 @ossl_qrx_get_bytes_received(ptr noundef %0, i32 noundef %1) #0 {
  %3 = alloca ptr, align 8
  %4 = alloca i32, align 4
  %5 = alloca i64, align 8
  store ptr %0, ptr %3, align 8, !tbaa !15
  store i32 %1, ptr %4, align 4, !tbaa !37
  call void @llvm.lifetime.start.p0(i64 8, ptr %5) #8
  %6 = load ptr, ptr %3, align 8, !tbaa !15
  %7 = getelementptr inbounds nuw %struct.ossl_qrx_st, ptr %6, i32 0, i32 12
  %8 = load i64, ptr %7, align 8, !tbaa !95
  store i64 %8, ptr %5, align 8, !tbaa !17
  %9 = load i32, ptr %4, align 4, !tbaa !37
  %10 = icmp ne i32 %9, 0
  br i1 %10, label %11, label %14

11:                                               ; preds = %2
  %12 = load ptr, ptr %3, align 8, !tbaa !15
  %13 = getelementptr inbounds nuw %struct.ossl_qrx_st, ptr %12, i32 0, i32 12
  store i64 0, ptr %13, align 8, !tbaa !95
  br label %14

14:                                               ; preds = %11, %2
  %15 = load i64, ptr %5, align 8, !tbaa !17
  call void @llvm.lifetime.end.p0(i64 8, ptr %5) #8
  ret i64 %15
}