; Function Attrs: mustprogress nofree norecurse nosync nounwind willreturn memory(argmem: readwrite) uwtable
define i64 @ossl_qrx_get_bytes_received(ptr noundef captures(none) %0, i32 noundef %1) local_unnamed_addr #6 {
  %3 = getelementptr inbounds nuw i8, ptr %0, i64 1000
  %4 = load i64, ptr %3, align 8, !tbaa !63
  %.not = icmp eq i32 %1, 0
  br i1 %.not, label %6, label %5

5:                                                ; preds = %2
  store i64 0, ptr %3, align 8, !tbaa !63
  br label %6

6:                                                ; preds = %5, %2
  ret i64 %4
}